target datalayout = "e-m:e-p270:32:32-p271:32:32-p272:64:64-i64:64-i128:128-f80:128-n8:16:32:64-S128"
target triple = "x86_64-pc-linux-gnu"

; Function Attrs: mustprogress nounwind uwtable
define hidden void @_Z5resetjPj(i32 noundef %0, ptr noundef %1) #4 {
  %3 = alloca i32, align 4
  %4 = alloca ptr, align 8
  %5 = alloca i32, align 4
  store i32 %0, ptr %3, align 4, !tbaa !3
  store ptr %1, ptr %4, align 8, !tbaa !7
  call void @llvm.lifetime.start.p0(i64 4, ptr %5) #3
  store i32 0, ptr %5, align 4, !tbaa !3
  br label %6

6:                                                ; preds = %16, %2
  %7 = load i32, ptr %5, align 4, !tbaa !3
  %8 = load i32, ptr %3, align 4, !tbaa !3
  %9 = icmp ult i32 %7, %8
  br i1 %9, label %11, label %10

10:                                               ; preds = %6
  call void @llvm.lifetime.end.p0(i64 4, ptr %5) #3
  br label %19

11:                                               ; preds = %6
  %12 = load ptr, ptr %4, align 8, !tbaa !7
  %13 = load i32, ptr %5, align 4, !tbaa !3
  %14 = zext i32 %13 to i64
  %15 = getelementptr inbounds nuw i32, ptr %12, i64 %14
  store i32 0, ptr %15, align 4, !tbaa !3
  br label %16

16:                                               ; preds = %11
  %17 = load i32, ptr %5, align 4, !tbaa !3
  %18 = add i32 %17, 1
  store i32 %18, ptr %5, align 4, !tbaa !3
  br label %6, !llvm.loop !17

19:                                               ; preds = %10
  ret void
}

; Function Attrs: mustprogress nounwind uwtable
define hidden void @_Z3shrjPKjjPj(i32 noundef %0, ptr noundef %1, i32 noundef %2, ptr noundef %3) #4 {
  %5 = alloca i32, align 4
  %6 = alloca ptr, align 8
  %7 = alloca i32, align 4
  %8 = alloca ptr, align 8
  %9 = alloca i32, align 4
  %10 = alloca i32, align 4
  %11 = alloca i32, align 4
  %12 = alloca i32, align 4
  %13 = alloca i32, align 4
  %14 = alloca i32, align 4
  %15 = alloca i32, align 4
  %16 = alloca i32, align 4
  %17 = alloca i32, align 4
  store i32 %0, ptr %5, align 4, !tbaa !3
  store ptr %1, ptr %6, align 8, !tbaa !7
  store i32 %2, ptr %7, align 4, !tbaa !3
  store ptr %3, ptr %8, align 8, !tbaa !7
  call void @llvm.lifetime.start.p0(i64 4, ptr %9) #3
  %18 = load i32, ptr %7, align 4, !tbaa !3
  %19 = zext i32 %18 to i64
  %20 = udiv i64 %19, 32
  %21 = trunc i64 %20 to i32
  store i32 %21, ptr %9, align 4, !tbaa !3
  %22 = load i32, ptr %9, align 4, !tbaa !3
  %23 = load i32, ptr %5, align 4, !tbaa !3
  %24 = icmp uge i32 %22, %23
  br i1 %24, label %25, label %28

25:                                               ; preds = %4
  %26 = load i32, ptr %5, align 4, !tbaa !3
  %27 = load ptr, ptr %8, align 8, !tbaa !7
  call void @_Z5resetjPj(i32 noundef %26, ptr noundef %27)
  store i32 1, ptr %10, align 4
  br label %201

28:                                               ; preds = %4
  call void @llvm.lifetime.start.p0(i64 4, ptr %11) #3
  %29 = load i32, ptr %7, align 4, !tbaa !3
  %30 = zext i32 %29 to i64
  %31 = urem i64 %30, 32
  %32 = trunc i64 %31 to i32
  store i32 %32, ptr %11, align 4, !tbaa !3
  call void @llvm.lifetime.start.p0(i64 4, ptr %12) #3
  %33 = load i32, ptr %11, align 4, !tbaa !3
  %34 = zext i32 %33 to i64
  %35 = sub i64 32, %34
  %36 = trunc i64 %35 to i32
  store i32 %36, ptr %12, align 4, !tbaa !3
  call void @llvm.lifetime.start.p0(i64 4, ptr %13) #3
  %37 = load i32, ptr %5, align 4, !tbaa !3
  %38 = load i32, ptr %9, align 4, !tbaa !3
  %39 = sub i32 %37, %38
  store i32 %39, ptr %13, align 4, !tbaa !3
  %40 = load i32, ptr %13, align 4, !tbaa !3
  %41 = load i32, ptr %5, align 4, !tbaa !3
  %42 = icmp ult i32 %40, %41
  br i1 %42, label %43, label %143

43:                                               ; preds = %28
  call void @llvm.lifetime.start.p0(i64 4, ptr %14) #3
  store i32 0, ptr %14, align 4, !tbaa !3
  call void @llvm.lifetime.start.p0(i64 4, ptr %15) #3
  %44 = load i32, ptr %9, align 4, !tbaa !3
  store i32 %44, ptr %15, align 4, !tbaa !3
  %45 = load i32, ptr %11, align 4, !tbaa !3
  %46 = icmp ne i32 %45, 0
  br i1 %46, label %47, label %106

47:                                               ; preds = %43
  br label %48

48:                                               ; preds = %84, %47
  %49 = load i32, ptr %14, align 4, !tbaa !3
  %50 = load i32, ptr %13, align 4, !tbaa !3
  %51 = sub i32 %50, 1
  %52 = icmp ult i32 %49, %51
  br i1 %52, label %53, label %89

53:                                               ; preds = %48
  %54 = load ptr, ptr %6, align 8, !tbaa !7
  %55 = load i32, ptr %15, align 4, !tbaa !3
  %56 = zext i32 %55 to i64
  %57 = getelementptr inbounds nuw i32, ptr %54, i64 %56
  %58 = load i32, ptr %57, align 4, !tbaa !3
  %59 = load ptr, ptr %8, align 8, !tbaa !7
  %60 = load i32, ptr %14, align 4, !tbaa !3
  %61 = zext i32 %60 to i64
  %62 = getelementptr inbounds nuw i32, ptr %59, i64 %61
  store i32 %58, ptr %62, align 4, !tbaa !3
  %63 = load i32, ptr %11, align 4, !tbaa !3
  %64 = load ptr, ptr %8, align 8, !tbaa !7
  %65 = load i32, ptr %14, align 4, !tbaa !3
  %66 = zext i32 %65 to i64
  %67 = getelementptr inbounds nuw i32, ptr %64, i64 %66
  %68 = load i32, ptr %67, align 4, !tbaa !3
  %69 = lshr i32 %68, %63
  store i32 %69, ptr %67, align 4, !tbaa !3
  %70 = load ptr, ptr %6, align 8, !tbaa !7
  %71 = load i32, ptr %15, align 4, !tbaa !3
  %72 = add i32 %71, 1
  %73 = zext i32 %72 to i64
  %74 = getelementptr inbounds nuw i32, ptr %70, i64 %73
  %75 = load i32, ptr %74, align 4, !tbaa !3
  %76 = load i32, ptr %12, align 4, !tbaa !3
  %77 = shl i32 %75, %76
  %78 = load ptr, ptr %8, align 8, !tbaa !7
  %79 = load i32, ptr %14, align 4, !tbaa !3
  %80 = zext i32 %79 to i64
  %81 = getelementptr inbounds nuw i32, ptr %78, i64 %80
  %82 = load i32, ptr %81, align 4, !tbaa !3
  %83 = or i32 %82, %77
  store i32 %83, ptr %81, align 4, !tbaa !3
  br label %84

84:                                               ; preds = %53
  %85 = load i32, ptr %14, align 4, !tbaa !3
  %86 = add i32 %85, 1
  store i32 %86, ptr %14, align 4, !tbaa !3
  %87 = load i32, ptr %15, align 4, !tbaa !3
  %88 = add i32 %87, 1
  store i32 %88, ptr %15, align 4, !tbaa !3
  br label %48, !llvm.loop !24

89:                                               ; preds = %48
  %90 = load ptr, ptr %6, align 8, !tbaa !7
  %91 = load i32, ptr %15, align 4, !tbaa !3
  %92 = zext i32 %91 to i64
  %93 = getelementptr inbounds nuw i32, ptr %90, i64 %92
  %94 = load i32, ptr %93, align 4, !tbaa !3
  %95 = load ptr, ptr %8, align 8, !tbaa !7
  %96 = load i32, ptr %14, align 4, !tbaa !3
  %97 = zext i32 %96 to i64
  %98 = getelementptr inbounds nuw i32, ptr %95, i64 %97
  store i32 %94, ptr %98, align 4, !tbaa !3
  %99 = load i32, ptr %11, align 4, !tbaa !3
  %100 = load ptr, ptr %8, align 8, !tbaa !7
  %101 = load i32, ptr %14, align 4, !tbaa !3
  %102 = zext i32 %101 to i64
  %103 = getelementptr inbounds nuw i32, ptr %100, i64 %102
  %104 = load i32, ptr %103, align 4, !tbaa !3
  %105 = lshr i32 %104, %99
  store i32 %105, ptr %103, align 4, !tbaa !3
  br label %127

106:                                              ; preds = %43
  br label %107

107:                                              ; preds = %121, %106
  %108 = load i32, ptr %14, align 4, !tbaa !3
  %109 = load i32, ptr %13, align 4, !tbaa !3
  %110 = icmp ult i32 %108, %109
  br i1 %110, label %111, label %126

111:                                              ; preds = %107
  %112 = load ptr, ptr %6, align 8, !tbaa !7
  %113 = load i32, ptr %15, align 4, !tbaa !3
  %114 = zext i32 %113 to i64
  %115 = getelementptr inbounds nuw i32, ptr %112, i64 %114
  %116 = load i32, ptr %115, align 4, !tbaa !3
  %117 = load ptr, ptr %8, align 8, !tbaa !7
  %118 = load i32, ptr %14, align 4, !tbaa !3
  %119 = zext i32 %118 to i64
  %120 = getelementptr inbounds nuw i32, ptr %117, i64 %119
  store i32 %116, ptr %120, align 4, !tbaa !3
  br label %121

121:                                              ; preds = %111
  %122 = load i32, ptr %14, align 4, !tbaa !3
  %123 = add i32 %122, 1
  store i32 %123, ptr %14, align 4, !tbaa !3
  %124 = load i32, ptr %15, align 4, !tbaa !3
  %125 = add i32 %124, 1
  store i32 %125, ptr %15, align 4, !tbaa !3
  br label %107, !llvm.loop !25

126:                                              ; preds = %107
  br label %127

127:                                              ; preds = %126, %89
  call void @llvm.lifetime.start.p0(i64 4, ptr %16) #3
  %128 = load i32, ptr %13, align 4, !tbaa !3
  store i32 %128, ptr %16, align 4, !tbaa !3
  br label %129

129:                                              ; preds = %139, %127
  %130 = load i32, ptr %16, align 4, !tbaa !3
  %131 = load i32, ptr %5, align 4, !tbaa !3
  %132 = icmp ult i32 %130, %131
  br i1 %132, label %134, label %133

133:                                              ; preds = %129
  store i32 8, ptr %10, align 4
  call void @llvm.lifetime.end.p0(i64 4, ptr %16) #3
  br label %142

134:                                              ; preds = %129
  %135 = load ptr, ptr %8, align 8, !tbaa !7
  %136 = load i32, ptr %16, align 4, !tbaa !3
  %137 = zext i32 %136 to i64
  %138 = getelementptr inbounds nuw i32, ptr %135, i64 %137
  store i32 0, ptr %138, align 4, !tbaa !3
  br label %139

139:                                              ; preds = %134
  %140 = load i32, ptr %16, align 4, !tbaa !3
  %141 = add i32 %140, 1
  store i32 %141, ptr %16, align 4, !tbaa !3
  br label %129, !llvm.loop !26

142:                                              ; preds = %133
  call void @llvm.lifetime.end.p0(i64 4, ptr %15) #3
  call void @llvm.lifetime.end.p0(i64 4, ptr %14) #3
  br label %200

143:                                              ; preds = %28
  call void @llvm.lifetime.start.p0(i64 4, ptr %17) #3
  store i32 0, ptr %17, align 4, !tbaa !3
  br label %144

144:                                              ; preds = %180, %143
  %145 = load i32, ptr %17, align 4, !tbaa !3
  %146 = load i32, ptr %13, align 4, !tbaa !3
  %147 = sub i32 %146, 1
  %148 = icmp ult i32 %145, %147
  br i1 %148, label %149, label %183

149:                                              ; preds = %144
  %150 = load ptr, ptr %6, align 8, !tbaa !7
  %151 = load i32, ptr %17, align 4, !tbaa !3
  %152 = zext i32 %151 to i64
  %153 = getelementptr inbounds nuw i32, ptr %150, i64 %152
  %154 = load i32, ptr %153, align 4, !tbaa !3
  %155 = load ptr, ptr %8, align 8, !tbaa !7
  %156 = load i32, ptr %17, align 4, !tbaa !3
  %157 = zext i32 %156 to i64
  %158 = getelementptr inbounds nuw i32, ptr %155, i64 %157
  store i32 %154, ptr %158, align 4, !tbaa !3
  %159 = load i32, ptr %11, align 4, !tbaa !3
  %160 = load ptr, ptr %8, align 8, !tbaa !7
  %161 = load i32, ptr %17, align 4, !tbaa !3
  %162 = zext i32 %161 to i64
  %163 = getelementptr inbounds nuw i32, ptr %160, i64 %162
  %164 = load i32, ptr %163, align 4, !tbaa !3
  %165 = lshr i32 %164, %159
  store i32 %165, ptr %163, align 4, !tbaa !3
  %166 = load ptr, ptr %6, align 8, !tbaa !7
  %167 = load i32, ptr %17, align 4, !tbaa !3
  %168 = add i32 %167, 1
  %169 = zext i32 %168 to i64
  %170 = getelementptr inbounds nuw i32, ptr %166, i64 %169
  %171 = load i32, ptr %170, align 4, !tbaa !3
  %172 = load i32, ptr %12, align 4, !tbaa !3
  %173 = shl i32 %171, %172
  %174 = load ptr, ptr %8, align 8, !tbaa !7
  %175 = load i32, ptr %17, align 4, !tbaa !3
  %176 = zext i32 %175 to i64
  %177 = getelementptr inbounds nuw i32, ptr %174, i64 %176
  %178 = load i32, ptr %177, align 4, !tbaa !3
  %179 = or i32 %178, %173
  store i32 %179, ptr %177, align 4, !tbaa !3
  br label %180

180:                                              ; preds = %149
  %181 = load i32, ptr %17, align 4, !tbaa !3
  %182 = add i32 %181, 1
  store i32 %182, ptr %17, align 4, !tbaa !3
  br label %144, !llvm.loop !27

183:                                              ; preds = %144
  %184 = load ptr, ptr %6, align 8, !tbaa !7
  %185 = load i32, ptr %17, align 4, !tbaa !3
  %186 = zext i32 %185 to i64
  %187 = getelementptr inbounds nuw i32, ptr %184, i64 %186
  %188 = load i32, ptr %187, align 4, !tbaa !3
  %189 = load ptr, ptr %8, align 8, !tbaa !7
  %190 = load i32, ptr %17, align 4, !tbaa !3
  %191 = zext i32 %190 to i64
  %192 = getelementptr inbounds nuw i32, ptr %189, i64 %191
  store i32 %188, ptr %192, align 4, !tbaa !3
  %193 = load i32, ptr %11, align 4, !tbaa !3
  %194 = load ptr, ptr %8, align 8, !tbaa !7
  %195 = load i32, ptr %17, align 4, !tbaa !3
  %196 = zext i32 %195 to i64
  %197 = getelementptr inbounds nuw i32, ptr %194, i64 %196
  %198 = load i32, ptr %197, align 4, !tbaa !3
  %199 = lshr i32 %198, %193
  store i32 %199, ptr %197, align 4, !tbaa !3
  call void @llvm.lifetime.end.p0(i64 4, ptr %17) #3
  br label %200

200:                                              ; preds = %183, %142
  call void @llvm.lifetime.end.p0(i64 4, ptr %13) #3
  call void @llvm.lifetime.end.p0(i64 4, ptr %12) #3
  call void @llvm.lifetime.end.p0(i64 4, ptr %11) #3
  store i32 0, ptr %10, align 4
  br label %201

201:                                              ; preds = %200, %25
  call void @llvm.lifetime.end.p0(i64 4, ptr %9) #3
  %202 = load i32, ptr %10, align 4
  switch i32 %202, label %204 [
    i32 0, label %203
    i32 1, label %203
  ]

203:                                              ; preds = %201, %201
  ret void

204:                                              ; preds = %201
  unreachable
}