; Function Attrs: mustprogress nofree norecurse nosync nounwind memory(argmem: readwrite) uwtable
define hidden void @_Z3shrjPKjjPj(i32 noundef %0, ptr noundef readonly captures(none) %1, i32 noundef %2, ptr noundef writeonly captures(none) %3) local_unnamed_addr #6 {
  %5 = lshr i32 %2, 5
  %.not = icmp ult i32 %5, %0
  br i1 %.not, label %9, label %6

6:                                                ; preds = %4
  %.not.i = icmp eq i32 %0, 0
  br i1 %.not.i, label %_Z5resetjPj.exit, label %.lr.ph.preheader.i

.lr.ph.preheader.i:                               ; preds = %6
  %7 = zext nneg i32 %0 to i64
  %8 = shl nuw nsw i64 %7, 2
  tail call void @llvm.memset.p0.i64(ptr align 4 %3, i8 0, i64 %8, i1 false), !tbaa !3
  br label %_Z5resetjPj.exit

9:                                                ; preds = %4
  %10 = and i32 %2, 31
  %narrow = sub nuw nsw i32 32, %10
  %11 = sub nuw i32 %0, %5
  %.not80 = icmp ult i32 %2, 32
  br i1 %.not80, label %.preheader, label %13

.preheader:                                       ; preds = %9
  %12 = add i32 %11, -1
  %.not100 = icmp eq i32 %12, 0
  br i1 %.not100, label %._crit_edge95, label %.lr.ph94.preheader

.lr.ph94.preheader:                               ; preds = %.preheader
  %wide.trip.count115 = zext i32 %12 to i64
  br label %.lr.ph94

13:                                               ; preds = %9
  %.not81 = icmp eq i32 %10, 0
  br i1 %.not81, label %.lr.ph89.preheader, label %.preheader83

.preheader83:                                     ; preds = %13
  %14 = add i32 %11, -1
  %.not97 = icmp eq i32 %14, 0
  br i1 %.not97, label %.preheader83.._crit_edge_crit_edge, label %.lr.ph.preheader

.preheader83.._crit_edge_crit_edge:               ; preds = %.preheader83
  %.pre = zext nneg i32 %5 to i64
  br label %._crit_edge

.lr.ph.preheader:                                 ; preds = %.preheader83
  %wide.trip.count = zext i32 %14 to i64
  br label %.lr.ph

.lr.ph89.preheader:                               ; preds = %13
  %wide.trip.count107 = zext i32 %11 to i64
  br label %.lr.ph89

.lr.ph:                                           ; preds = %.lr.ph.preheader, %.lr.ph
  %indvars.iv = phi i64 [ 0, %.lr.ph.preheader ], [ %indvars.iv.next, %.lr.ph ]
  %.07285 = phi i32 [ %5, %.lr.ph.preheader ], [ %20, %.lr.ph ]
  %15 = zext i32 %.07285 to i64
  %16 = getelementptr inbounds nuw i32, ptr %1, i64 %15
  %17 = load i32, ptr %16, align 4, !tbaa !3
  %18 = getelementptr inbounds nuw i32, ptr %3, i64 %indvars.iv
  %19 = lshr i32 %17, %10
  store i32 %19, ptr %18, align 4, !tbaa !3
  %20 = add i32 %.07285, 1
  %21 = zext i32 %20 to i64
  %22 = getelementptr inbounds nuw i32, ptr %1, i64 %21
  %23 = load i32, ptr %22, align 4, !tbaa !3
  %24 = shl i32 %23, %narrow
  %25 = or disjoint i32 %24, %19
  store i32 %25, ptr %18, align 4, !tbaa !3
  %indvars.iv.next = add nuw nsw i64 %indvars.iv, 1
  %exitcond.not = icmp eq i64 %indvars.iv.next, %wide.trip.count
  br i1 %exitcond.not, label %._crit_edge.loopexit, label %.lr.ph, !llvm.loop !16

._crit_edge.loopexit:                             ; preds = %.lr.ph
  %26 = zext i32 %14 to i64
  br label %._crit_edge

._crit_edge:                                      ; preds = %.preheader83.._crit_edge_crit_edge, %._crit_edge.loopexit
  %.pre-phi = phi i64 [ %.pre, %.preheader83.._crit_edge_crit_edge ], [ %21, %._crit_edge.loopexit ]
  %.073.lcssa = phi i64 [ 0, %.preheader83.._crit_edge_crit_edge ], [ %26, %._crit_edge.loopexit ]
  %27 = getelementptr inbounds nuw i32, ptr %1, i64 %.pre-phi
  %28 = load i32, ptr %27, align 4, !tbaa !3
  %29 = getelementptr inbounds nuw i32, ptr %3, i64 %.073.lcssa
  %30 = lshr i32 %28, %10
  store i32 %30, ptr %29, align 4, !tbaa !3
  br label %.lr.ph92.preheader

.lr.ph89:                                         ; preds = %.lr.ph89.preheader, %.lr.ph89
  %indvars.iv104 = phi i64 [ 0, %.lr.ph89.preheader ], [ %indvars.iv.next105, %.lr.ph89 ]
  %.188 = phi i32 [ %5, %.lr.ph89.preheader ], [ %35, %.lr.ph89 ]
  %31 = zext i32 %.188 to i64
  %32 = getelementptr inbounds nuw i32, ptr %1, i64 %31
  %33 = load i32, ptr %32, align 4, !tbaa !3
  %34 = getelementptr inbounds nuw i32, ptr %3, i64 %indvars.iv104
  store i32 %33, ptr %34, align 4, !tbaa !3
  %indvars.iv.next105 = add nuw nsw i64 %indvars.iv104, 1
  %35 = add i32 %.188, 1
  %exitcond108.not = icmp eq i64 %indvars.iv.next105, %wide.trip.count107
  br i1 %exitcond108.not, label %.lr.ph92.preheader, label %.lr.ph89, !llvm.loop !17

.lr.ph92.preheader:                               ; preds = %.lr.ph89, %._crit_edge
  %36 = zext i32 %11 to i64
  %37 = shl nuw nsw i64 %36, 2
  %scevgep = getelementptr i8, ptr %3, i64 %37
  %38 = add i32 %0, 1
  %39 = sub i32 %38, %5
  %umax = tail call i32 @llvm.umax.i32(i32 %0, i32 %39)
  %40 = add i32 %umax, %5
  %41 = xor i32 %0, -1
  %42 = add i32 %40, %41
  %43 = zext i32 %42 to i64
  %44 = shl nuw nsw i64 %43, 2
  %45 = add nuw nsw i64 %44, 4
  tail call void @llvm.memset.p0.i64(ptr noundef nonnull align 4 dereferenceable(1) %scevgep, i8 0, i64 %45, i1 false), !tbaa !3
  br label %_Z5resetjPj.exit

.lr.ph94:                                         ; preds = %.lr.ph94.preheader, %.lr.ph94
  %indvars.iv112 = phi i64 [ 0, %.lr.ph94.preheader ], [ %indvars.iv.next113, %.lr.ph94 ]
  %46 = getelementptr inbounds nuw i32, ptr %1, i64 %indvars.iv112
  %47 = load i32, ptr %46, align 4, !tbaa !3
  %48 = getelementptr inbounds nuw i32, ptr %3, i64 %indvars.iv112
  %49 = lshr i32 %47, %10
  store i32 %49, ptr %48, align 4, !tbaa !3
  %indvars.iv.next113 = add nuw nsw i64 %indvars.iv112, 1
  %50 = getelementptr inbounds nuw i32, ptr %1, i64 %indvars.iv.next113
  %51 = load i32, ptr %50, align 4, !tbaa !3
  %52 = shl i32 %51, %narrow
  %53 = or disjoint i32 %52, %49
  store i32 %53, ptr %48, align 4, !tbaa !3
  %exitcond116.not = icmp eq i64 %indvars.iv.next113, %wide.trip.count115
  br i1 %exitcond116.not, label %._crit_edge95.loopexit, label %.lr.ph94, !llvm.loop !18

._crit_edge95.loopexit:                           ; preds = %.lr.ph94
  %54 = zext i32 %12 to i64
  br label %._crit_edge95

._crit_edge95:                                    ; preds = %.preheader, %._crit_edge95.loopexit
  %.0.lcssa = phi i64 [ %54, %._crit_edge95.loopexit ], [ 0, %.preheader ]
  %55 = getelementptr inbounds nuw i32, ptr %1, i64 %.0.lcssa
  %56 = load i32, ptr %55, align 4, !tbaa !3
  %57 = getelementptr inbounds nuw i32, ptr %3, i64 %.0.lcssa
  %58 = lshr i32 %56, %10
  store i32 %58, ptr %57, align 4, !tbaa !3
  br label %_Z5resetjPj.exit

_Z5resetjPj.exit:                                 ; preds = %.lr.ph92.preheader, %.lr.ph.preheader.i, %6, %._crit_edge95
  ret void
}